target datalayout = "e-m:e-p270:32:32-p271:32:32-p272:64:64-i64:64-i128:128-f80:128-n8:16:32:64-S128"
target triple = "x86_64-pc-linux-gnu"

%struct.H5HF_free_section_t = type { %struct.H5FS_section_info_t, %union.anon }
%struct.H5FS_section_info_t = type { i64, i64, i32, i32 }
%union.anon = type { %struct.anon.1 }
%struct.anon.1 = type { %union.anon.2, i32, i32, i32, ptr, i32, i64, i32, i32, i32, ptr, i32, ptr }
%union.anon.2 = type { ptr }
%struct.anon.0 = type { ptr, i32, i32, i32, i8 }

@H5HF_init_g = external global i8, align 1
@H5_libterm_g = external global i8, align 1
@.str = private unnamed_addr constant [105 x i8] c"generated/home/dtcxzyw/WorkSpace/Projects/compilers/llvm-opt-benchmark/bench/hdf5/hdf5/src/H5HFsection.c\00", align 1
@H5E_HEAP_g = external global i64, align 8
@__func__.H5HF__sect_indirect_first = private unnamed_addr constant [26 x i8] c"H5HF__sect_indirect_first\00", align 1
@H5E_CANTSET_g = external global i64, align 8
@.str.71 = private unnamed_addr constant [38 x i8] c"can't set row section to be first row\00", align 1
@.str.72 = private unnamed_addr constant [49 x i8] c"can't set child indirect section to be first row\00", align 1
@__func__.H5HF__sect_row_first = private unnamed_addr constant [21 x i8] c"H5HF__sect_row_first\00", align 1

; Function Attrs: nounwind uwtable
define internal i32 @H5HF__sect_row_first(ptr noundef %0, ptr noundef %1) #0 {
  %3 = alloca ptr, align 8
  %4 = alloca ptr, align 8
  %5 = alloca i32, align 4
  %6 = alloca i8, align 1
  store ptr %0, ptr %3, align 8, !tbaa !22
  store ptr %1, ptr %4, align 8, !tbaa !23
  call void @llvm.lifetime.start.p0(i64 4, ptr %5) #7
  store i32 0, ptr %5, align 4, !tbaa !11
  call void @llvm.lifetime.start.p0(i64 1, ptr %6) #7
  store i8 0, ptr %6, align 1, !tbaa !13
  %7 = load i8, ptr @H5HF_init_g, align 1, !tbaa !13, !range !15, !noundef !16
  %8 = trunc i8 %7 to i1
  br i1 %8, label %13, label %9

9:                                                ; preds = %2
  %10 = load i8, ptr @H5_libterm_g, align 1, !tbaa !13, !range !15, !noundef !16
  %11 = trunc i8 %10 to i1
  %12 = xor i1 %11, true
  br label %13

13:                                               ; preds = %9, %2
  %14 = phi i1 [ true, %2 ], [ %12, %9 ]
  %15 = xor i1 %14, true
  %16 = xor i1 %15, true
  %17 = zext i1 %16 to i32
  %18 = sext i32 %17 to i64
  %19 = call i64 @llvm.expect.i64(i64 %18, i64 1)
  %20 = icmp ne i64 %19, 0
  br i1 %20, label %21, label %58

21:                                               ; preds = %13
  %22 = load ptr, ptr %4, align 8, !tbaa !23
  %23 = getelementptr inbounds nuw %struct.H5HF_free_section_t, ptr %22, i32 0, i32 1
  %24 = getelementptr inbounds nuw %struct.anon.0, ptr %23, i32 0, i32 4
  %25 = load i8, ptr %24, align 4, !tbaa !63, !range !15, !noundef !16
  %26 = trunc i8 %25 to i1
  br i1 %26, label %27, label %31

27:                                               ; preds = %21
  %28 = load ptr, ptr %4, align 8, !tbaa !23
  %29 = getelementptr inbounds nuw %struct.H5HF_free_section_t, ptr %28, i32 0, i32 0
  %30 = getelementptr inbounds nuw %struct.H5FS_section_info_t, ptr %29, i32 0, i32 2
  store i32 1, ptr %30, align 8, !tbaa !27
  br label %56

31:                                               ; preds = %21
  %32 = load ptr, ptr %3, align 8, !tbaa !22
  %33 = load ptr, ptr %4, align 8, !tbaa !23
  %34 = call i32 @H5HF__space_sect_change_class(ptr noundef %32, ptr noundef %33, i16 noundef zeroext 1)
  %35 = icmp slt i32 %34, 0
  br i1 %35, label %36, label %55

36:                                               ; preds = %31
  br label %37

37:                                               ; preds = %36
  br label %38

38:                                               ; preds = %37
  br label %39

39:                                               ; preds = %38
  %40 = load i64, ptr @H5E_HEAP_g, align 8, !tbaa !25
  %41 = load i64, ptr @H5E_CANTSET_g, align 8, !tbaa !25
  %42 = call i32 (ptr, ptr, i32, i64, i64, ptr, ...) @H5E_printf_stack(ptr noundef @.str, ptr noundef @__func__.H5HF__sect_row_first, i32 noundef 1383, i64 noundef %40, i64 noundef %41, ptr noundef @.str.71)
  br label %43

43:                                               ; preds = %39
  br label %44

44:                                               ; preds = %43
  store i8 1, ptr %6, align 1, !tbaa !13
  %45 = load i8, ptr %6, align 1, !tbaa !13, !range !15, !noundef !16
  %46 = trunc i8 %45 to i1
  %47 = zext i1 %46 to i8
  store i8 %47, ptr %6, align 1, !tbaa !13
  br label %48

48:                                               ; preds = %44
  br label %49

49:                                               ; preds = %48
  br label %50

50:                                               ; preds = %49
  store i32 -1, ptr %5, align 4, !tbaa !11
  br label %57

51:                                               ; No predecessors!
  br label %52

52:                                               ; preds = %51
  br label %53

53:                                               ; preds = %52
  br label %54

54:                                               ; preds = %53
  br label %55

55:                                               ; preds = %54, %31
  br label %56

56:                                               ; preds = %55, %27
  br label %57

57:                                               ; preds = %56, %50
  br label %58

58:                                               ; preds = %57, %13
  %59 = load i32, ptr %5, align 4, !tbaa !11
  call void @llvm.lifetime.end.p0(i64 1, ptr %6) #7
  call void @llvm.lifetime.end.p0(i64 4, ptr %5) #7
  ret i32 %59
}

; Function Attrs: nounwind uwtable
define internal i32 @H5HF__sect_indirect_first(ptr noundef %0, ptr noundef %1) #0 {
  %3 = alloca ptr, align 8
  %4 = alloca ptr, align 8
  %5 = alloca i32, align 4
  %6 = alloca i8, align 1
  store ptr %0, ptr %3, align 8, !tbaa !22
  store ptr %1, ptr %4, align 8, !tbaa !23
  call void @llvm.lifetime.start.p0(i64 4, ptr %5) #7
  store i32 0, ptr %5, align 4, !tbaa !11
  call void @llvm.lifetime.start.p0(i64 1, ptr %6) #7
  store i8 0, ptr %6, align 1, !tbaa !13
  %7 = load i8, ptr @H5HF_init_g, align 1, !tbaa !13, !range !15, !noundef !16
  %8 = trunc i8 %7 to i1
  br i1 %8, label %13, label %9

9:                                                ; preds = %2
  %10 = load i8, ptr @H5_libterm_g, align 1, !tbaa !13, !range !15, !noundef !16
  %11 = trunc i8 %10 to i1
  %12 = xor i1 %11, true
  br label %13

13:                                               ; preds = %9, %2
  %14 = phi i1 [ true, %2 ], [ %12, %9 ]
  %15 = xor i1 %14, true
  %16 = xor i1 %15, true
  %17 = zext i1 %16 to i32
  %18 = sext i32 %17 to i64
  %19 = call i64 @llvm.expect.i64(i64 %18, i64 1)
  %20 = icmp ne i64 %19, 0
  br i1 %20, label %21, label %89

21:                                               ; preds = %13
  %22 = load ptr, ptr %4, align 8, !tbaa !23
  %23 = getelementptr inbounds nuw %struct.H5HF_free_section_t, ptr %22, i32 0, i32 1
  %24 = getelementptr inbounds nuw %struct.anon.1, ptr %23, i32 0, i32 9
  %25 = load i32, ptr %24, align 8, !tbaa !63
  %26 = icmp ugt i32 %25, 0
  br i1 %26, label %27, label %57

27:                                               ; preds = %21
  %28 = load ptr, ptr %3, align 8, !tbaa !22
  %29 = load ptr, ptr %4, align 8, !tbaa !23
  %30 = getelementptr inbounds nuw %struct.H5HF_free_section_t, ptr %29, i32 0, i32 1
  %31 = getelementptr inbounds nuw %struct.anon.1, ptr %30, i32 0, i32 10
  %32 = load ptr, ptr %31, align 8, !tbaa !63
  %33 = getelementptr inbounds ptr, ptr %32, i64 0
  %34 = load ptr, ptr %33, align 8, !tbaa !23
  %35 = call i32 @H5HF__sect_row_first(ptr noundef %28, ptr noundef %34)
  %36 = icmp slt i32 %35, 0
  br i1 %36, label %37, label %56

37:                                               ; preds = %27
  br label %38

38:                                               ; preds = %37
  br label %39

39:                                               ; preds = %38
  br label %40

40:                                               ; preds = %39
  %41 = load i64, ptr @H5E_HEAP_g, align 8, !tbaa !25
  %42 = load i64, ptr @H5E_CANTSET_g, align 8, !tbaa !25
  %43 = call i32 (ptr, ptr, i32, i64, i64, ptr, ...) @H5E_printf_stack(ptr noundef @.str, ptr noundef @__func__.H5HF__sect_indirect_first, i32 noundef 3218, i64 noundef %41, i64 noundef %42, ptr noundef @.str.71)
  br label %44

44:                                               ; preds = %40
  br label %45

45:                                               ; preds = %44
  store i8 1, ptr %6, align 1, !tbaa !13
  %46 = load i8, ptr %6, align 1, !tbaa !13, !range !15, !noundef !16
  %47 = trunc i8 %46 to i1
  %48 = zext i1 %47 to i8
  store i8 %48, ptr %6, align 1, !tbaa !13
  br label %49

49:                                               ; preds = %45
  br label %50

50:                                               ; preds = %49
  br label %51

51:                                               ; preds = %50
  store i32 -1, ptr %5, align 4, !tbaa !11
  br label %88

52:                                               ; No predecessors!
  br label %53

53:                                               ; preds = %52
  br label %54

54:                                               ; preds = %53
  br label %55

55:                                               ; preds = %54
  br label %56

56:                                               ; preds = %55, %27
  br label %87

57:                                               ; preds = %21
  %58 = load ptr, ptr %3, align 8, !tbaa !22
  %59 = load ptr, ptr %4, align 8, !tbaa !23
  %60 = getelementptr inbounds nuw %struct.H5HF_free_section_t, ptr %59, i32 0, i32 1
  %61 = getelementptr inbounds nuw %struct.anon.1, ptr %60, i32 0, i32 12
  %62 = load ptr, ptr %61, align 8, !tbaa !63
  %63 = getelementptr inbounds ptr, ptr %62, i64 0
  %64 = load ptr, ptr %63, align 8, !tbaa !23
  %65 = call i32 @H5HF__sect_indirect_first(ptr noundef %58, ptr noundef %64)
  %66 = icmp slt i32 %65, 0
  br i1 %66, label %67, label %86

67:                                               ; preds = %57
  br label %68

68:                                               ; preds = %67
  br label %69

69:                                               ; preds = %68
  br label %70

70:                                               ; preds = %69
  %71 = load i64, ptr @H5E_HEAP_g, align 8, !tbaa !25
  %72 = load i64, ptr @H5E_CANTSET_g, align 8, !tbaa !25
  %73 = call i32 (ptr, ptr, i32, i64, i64, ptr, ...) @H5E_printf_stack(ptr noundef @.str, ptr noundef @__func__.H5HF__sect_indirect_first, i32 noundef 3228, i64 noundef %71, i64 noundef %72, ptr noundef @.str.72)
  br label %74

74:                                               ; preds = %70
  br label %75

75:                                               ; preds = %74
  store i8 1, ptr %6, align 1, !tbaa !13
  %76 = load i8, ptr %6, align 1, !tbaa !13, !range !15, !noundef !16
  %77 = trunc i8 %76 to i1
  %78 = zext i1 %77 to i8
  store i8 %78, ptr %6, align 1, !tbaa !13
  br label %79

79:                                               ; preds = %75
  br label %80

80:                                               ; preds = %79
  br label %81

81:                                               ; preds = %80
  store i32 -1, ptr %5, align 4, !tbaa !11
  br label %88

82:                                               ; No predecessors!
  br label %83

83:                                               ; preds = %82
  br label %84

84:                                               ; preds = %83
  br label %85

85:                                               ; preds = %84
  br label %86

86:                                               ; preds = %85, %57
  br label %87

87:                                               ; preds = %86, %56
  br label %88

88:                                               ; preds = %87, %81, %51
  br label %89

89:                                               ; preds = %88, %13
  %90 = load i32, ptr %5, align 4, !tbaa !11
  call void @llvm.lifetime.end.p0(i64 1, ptr %6) #7
  call void @llvm.lifetime.end.p0(i64 4, ptr %5) #7
  ret i32 %90
}