; Function Attrs: nounwind uwtable
define internal fastcc range(i32 -1, 1) i32 @H5HF__sect_indirect_first(ptr noundef %0, ptr noundef readonly captures(none) %1) unnamed_addr #0 {
  %3 = load i8, ptr @H5HF_init_g, align 1, !tbaa !3, !range !7, !noundef !8
  %4 = trunc nuw i8 %3 to i1
  %5 = load i8, ptr @H5_libterm_g, align 1, !range !7
  %6 = trunc nuw i8 %5 to i1
  %7 = xor i1 %6, true
  %8 = select i1 %4, i1 true, i1 %7
  br i1 %8, label %9, label %H5HF__sect_row_first.exit.thread, !prof !9

9:                                                ; preds = %2
  %10 = getelementptr inbounds nuw i8, ptr %1, i64 80
  %11 = load i32, ptr %10, align 8, !tbaa !26
  %.not = icmp eq i32 %11, 0
  br i1 %.not, label %31, label %12

12:                                               ; preds = %9
  %13 = getelementptr inbounds nuw i8, ptr %1, i64 88
  %14 = load ptr, ptr %13, align 8, !tbaa !26
  %15 = load ptr, ptr %14, align 8, !tbaa !16
  %16 = getelementptr inbounds nuw i8, ptr %15, i64 44
  %17 = load i8, ptr %16, align 4, !tbaa !26, !range !7, !noundef !8
  %18 = trunc nuw i8 %17 to i1
  br i1 %18, label %19, label %21

19:                                               ; preds = %12
  %20 = getelementptr inbounds nuw i8, ptr %15, i64 16
  store i32 1, ptr %20, align 8, !tbaa !20
  br label %H5HF__sect_row_first.exit.thread

21:                                               ; preds = %12
  %22 = tail call i32 @H5HF__space_sect_change_class(ptr noundef %0, ptr noundef nonnull %15, i16 noundef zeroext 1) #13
  %23 = icmp slt i32 %22, 0
  br i1 %23, label %24, label %H5HF__sect_row_first.exit.thread

24:                                               ; preds = %21
  %25 = load i64, ptr @H5E_HEAP_g, align 8, !tbaa !18
  %26 = load i64, ptr @H5E_CANTSET_g, align 8, !tbaa !18
  %27 = tail call i32 (ptr, ptr, i32, i64, i64, ptr, ...) @H5E_printf_stack(ptr noundef nonnull @.str, ptr noundef nonnull @__func__.H5HF__sect_row_first, i32 noundef 1383, i64 noundef %25, i64 noundef %26, ptr noundef nonnull @.str.71) #13
  %28 = load i64, ptr @H5E_HEAP_g, align 8, !tbaa !18
  %29 = load i64, ptr @H5E_CANTSET_g, align 8, !tbaa !18
  %30 = tail call i32 (ptr, ptr, i32, i64, i64, ptr, ...) @H5E_printf_stack(ptr noundef nonnull @.str, ptr noundef nonnull @__func__.H5HF__sect_indirect_first, i32 noundef 3218, i64 noundef %28, i64 noundef %29, ptr noundef nonnull @.str.71) #13
  br label %H5HF__sect_row_first.exit.thread

31:                                               ; preds = %9
  %32 = getelementptr inbounds nuw i8, ptr %1, i64 104
  %33 = load ptr, ptr %32, align 8, !tbaa !26
  %34 = load ptr, ptr %33, align 8, !tbaa !16
  %35 = tail call fastcc i32 @H5HF__sect_indirect_first(ptr noundef %0, ptr noundef %34)
  %36 = icmp slt i32 %35, 0
  br i1 %36, label %37, label %H5HF__sect_row_first.exit.thread

37:                                               ; preds = %31
  %38 = load i64, ptr @H5E_HEAP_g, align 8, !tbaa !18
  %39 = load i64, ptr @H5E_CANTSET_g, align 8, !tbaa !18
  %40 = tail call i32 (ptr, ptr, i32, i64, i64, ptr, ...) @H5E_printf_stack(ptr noundef nonnull @.str, ptr noundef nonnull @__func__.H5HF__sect_indirect_first, i32 noundef 3228, i64 noundef %38, i64 noundef %39, ptr noundef nonnull @.str.72) #13
  br label %H5HF__sect_row_first.exit.thread

H5HF__sect_row_first.exit.thread:                 ; preds = %21, %19, %24, %37, %31, %2
  %.0 = phi i32 [ -1, %24 ], [ -1, %37 ], [ 0, %31 ], [ 0, %2 ], [ 0, %19 ], [ 0, %21 ]
  ret i32 %.0
}